target datalayout = "e-m:e-p270:32:32-p271:32:32-p272:64:64-i64:64-i128:128-f80:128-n8:16:32:64-S128"
target triple = "x86_64-pc-linux-gnu"

%class.JSON = type <{ ptr, ptr, ptr, ptr, ptr, i32, i32, i32, i8, i8, [2 x i8] }>

; Function Attrs: mustprogress nounwind uwtable
define hidden noundef zeroext i8 @_ZN4JSON4peekEm(ptr noundef nonnull align 8 dereferenceable(54) %0, i64 noundef %1) #1 align 2 {
  %3 = alloca ptr, align 8
  %4 = alloca i64, align 8
  %5 = alloca i8, align 1
  %6 = alloca ptr, align 8
  store ptr %0, ptr %3, align 8
  store i64 %1, ptr %4, align 8
  %7 = load ptr, ptr %3, align 8
  %8 = getelementptr inbounds %class.JSON, ptr %7, i32 0, i32 3
  %9 = load ptr, ptr %8, align 8
  store ptr %9, ptr %6, align 8
  %10 = load ptr, ptr %6, align 8
  %11 = load i8, ptr %10, align 1
  store i8 %11, ptr %5, align 1
  br label %12

12:                                               ; preds = %21, %2
  %13 = load i64, ptr %4, align 8
  %14 = icmp ugt i64 %13, 0
  br i1 %14, label %15, label %19

15:                                               ; preds = %12
  %16 = load i8, ptr %5, align 1
  %17 = zext i8 %16 to i32
  %18 = icmp ne i32 %17, 0
  br label %19

19:                                               ; preds = %15, %12
  %20 = phi i1 [ false, %12 ], [ %18, %15 ]
  br i1 %20, label %21, label %28

21:                                               ; preds = %19
  %22 = load i64, ptr %4, align 8
  %23 = add i64 %22, -1
  store i64 %23, ptr %4, align 8
  %24 = load ptr, ptr %6, align 8
  %25 = getelementptr inbounds i8, ptr %24, i32 1
  store ptr %25, ptr %6, align 8
  %26 = load ptr, ptr %6, align 8
  %27 = load i8, ptr %26, align 1
  store i8 %27, ptr %5, align 1
  br label %12, !llvm.loop !16

28:                                               ; preds = %19
  %29 = load i8, ptr %5, align 1
  ret i8 %29
}