; Function Attrs: mustprogress nofree norecurse nosync nounwind willreturn memory(read, inaccessiblemem: none) uwtable
define hidden noundef zeroext i8 @_ZN4JSON4peekEm(ptr nocapture noundef nonnull readonly align 8 dereferenceable(54) %0, i64 noundef %1) local_unnamed_addr #6 align 2 {
  %3 = getelementptr inbounds i8, ptr %0, i64 24
  %4 = load ptr, ptr %3, align 8
  %.079 = load i8, ptr %4, align 1
  %5 = icmp ne i64 %1, 0
  %6 = icmp ne i8 %.079, 0
  %7 = select i1 %5, i1 %6, i1 false
  br i1 %7, label %.lr.ph, label %._crit_edge

.lr.ph:                                           ; preds = %2, %.lr.ph
  %.011 = phi ptr [ %9, %.lr.ph ], [ %4, %2 ]
  %.0810 = phi i64 [ %8, %.lr.ph ], [ %1, %2 ]
  %8 = add i64 %.0810, -1
  %9 = getelementptr inbounds i8, ptr %.011, i64 1
  %.07 = load i8, ptr %9, align 1
  %10 = icmp ne i64 %8, 0
  %11 = icmp ne i8 %.07, 0
  %12 = select i1 %10, i1 %11, i1 false
  br i1 %12, label %.lr.ph, label %._crit_edge, !llvm.loop !16

._crit_edge:                                      ; preds = %.lr.ph, %2
  %.07.lcssa = phi i8 [ %.079, %2 ], [ %.07, %.lr.ph ]
  ret i8 %.07.lcssa
}